; ModuleID = '11/597.c'
source_filename = "11/597.c"
target datalayout = "e-m:e-p270:32:32-p271:32:32-p272:64:64-i64:64-f80:128-n8:16:32:64-S128"
target triple = "x86_64-pc-linux-gnu"

@__const.main.days = private unnamed_addr constant [12 x i32] [i32 31, i32 28, i32 31, i32 30, i32 31, i32 30, i32 31, i32 31, i32 30, i32 31, i32 30, i32 31], align 16
@.str = private unnamed_addr constant [7 x i8] c"%d%d%d\00", align 1
@.str.1 = private unnamed_addr constant [3 x i8] c"%d\00", align 1

; Function Attrs: noinline nounwind uwtable
define dso_local i32 @main(i32 %0, i8** %1) #0 {
  %3 = alloca i32, align 4
  %4 = alloca i32, align 4
  %5 = alloca i8**, align 8
  %6 = alloca [12 x i32], align 16
  %7 = alloca i32, align 4
  %8 = alloca i32, align 4
  %9 = alloca i32, align 4
  %10 = alloca i32, align 4
  %11 = alloca i32, align 4
  %12 = alloca i32, align 4
  store i32 0, i32* %3, align 4
  store i32 %0, i32* %4, align 4
  store i8** %1, i8*** %5, align 8
  %13 = bitcast [12 x i32]* %6 to i8*
  call void @llvm.memcpy.p0i8.p0i8.i64(i8* align 16 %13, i8* align 16 bitcast ([12 x i32]* @__const.main.days to i8*), i64 48, i1 false)
  store i32 0, i32* %10, align 4
  %14 = call i32 (i8*, ...) @__isoc99_scanf(i8* getelementptr inbounds ([7 x i8], [7 x i8]* @.str, i64 0, i64 0), i32* %7, i32* %8, i32* %9)
  %15 = load i32, i32* %7, align 4
  %16 = srem i32 %15, 4
  %17 = icmp eq i32 %16, 0
  br i1 %17, label %18, label %22

18:                                               ; preds = %2
  %19 = load i32, i32* %7, align 4
  %20 = srem i32 %19, 100
  %21 = icmp ne i32 %20, 0
  br i1 %21, label %26, label %22

22:                                               ; preds = %18, %2
  %23 = load i32, i32* %7, align 4
  %24 = srem i32 %23, 400
  %25 = icmp eq i32 %24, 0
  br i1 %25, label %26, label %28

26:                                               ; preds = %22, %18
  %27 = getelementptr inbounds [12 x i32], [12 x i32]* %6, i64 0, i64 1
  store i32 29, i32* %27, align 4
  br label %30

28:                                               ; preds = %22
  %29 = getelementptr inbounds [12 x i32], [12 x i32]* %6, i64 0, i64 1
  store i32 28, i32* %29, align 4
  br label %30

30:                                               ; preds = %28, %26
  store i32 0, i32* %11, align 4
  br label %31

31:                                               ; preds = %43, %30
  %32 = load i32, i32* %11, align 4
  %33 = load i32, i32* %8, align 4
  %34 = sub nsw i32 %33, 1
  %35 = icmp slt i32 %32, %34
  br i1 %35, label %36, label %46

36:                                               ; preds = %31
  %37 = load i32, i32* %10, align 4
  %38 = load i32, i32* %11, align 4
  %39 = sext i32 %38 to i64
  %40 = getelementptr inbounds [12 x i32], [12 x i32]* %6, i64 0, i64 %39
  %41 = load i32, i32* %40, align 4
  %42 = add nsw i32 %37, %41
  store i32 %42, i32* %10, align 4
  br label %43

43:                                               ; preds = %36
  %44 = load i32, i32* %11, align 4
  %45 = add nsw i32 %44, 1
  store i32 %45, i32* %11, align 4
  br label %31

46:                                               ; preds = %31
  %47 = load i32, i32* %10, align 4
  %48 = load i32, i32* %9, align 4
  %49 = add nsw i32 %47, %48
  store i32 %49, i32* %12, align 4
  %50 = load i32, i32* %12, align 4
  %51 = call i32 (i8*, ...) @printf(i8* getelementptr inbounds ([3 x i8], [3 x i8]* @.str.1, i64 0, i64 0), i32 %50)
  ret i32 0
}

; Function Attrs: argmemonly nounwind willreturn
declare void @llvm.memcpy.p0i8.p0i8.i64(i8* noalias nocapture writeonly, i8* noalias nocapture readonly, i64, i1 immarg) #1

declare dso_local i32 @__isoc99_scanf(i8*, ...) #2

declare dso_local i32 @printf(i8*, ...) #2


!llvm.module.flags = !{!0}
!llvm.ident = !{!1}

!0 = !{i32 1, !"wchar_size", i32 4}
!1 = !{!"clang version 10.0.0-4ubuntu1 "}
